target datalayout = "e-m:e-p270:32:32-p271:32:32-p272:64:64-i64:64-i128:128-f80:128-n8:16:32:64-S128"
target triple = "x86_64-pc-linux-gnu"

%struct.Abc_Ntk_t_ = type { i32, i32, ptr, ptr, ptr, ptr, ptr, ptr, ptr, ptr, ptr, ptr, ptr, [11 x i32], i32, i32, i32, i32, ptr, i32, ptr, ptr, i32, i32, i32, double, i32, %struct.Vec_Int_t_, ptr, ptr, ptr, ptr, ptr, float, i32, ptr, ptr, ptr, ptr, ptr, ptr, ptr, ptr, ptr, ptr, ptr, ptr, ptr, ptr, ptr, ptr, ptr, ptr, ptr, ptr, ptr, ptr }
%struct.Vec_Int_t_ = type { i32, i32, ptr }
%struct.Vec_Ptr_t_ = type { i32, i32, ptr }

@.str.52 = private unnamed_addr constant [51 x i8] c"Networks have different number of primary inputs.\0A\00", align 1
@.str.53 = private unnamed_addr constant [78 x i8] c"Primary input #%d is different in network 1 ( \22%s\22) and in network 2 (\22%s\22).\0A\00", align 1
@.str.54 = private unnamed_addr constant [52 x i8] c"Networks have different number of primary outputs.\0A\00", align 1
@.str.55 = private unnamed_addr constant [79 x i8] c"Primary output #%d is different in network 1 ( \22%s\22) and in network 2 (\22%s\22).\0A\00", align 1

; Function Attrs: inlinehint nounwind uwtable
define internal ptr @Vec_PtrEntry(ptr noundef %0, i32 noundef %1) #3 {
  %3 = alloca ptr, align 8
  %4 = alloca i32, align 4
  store ptr %0, ptr %3, align 8, !tbaa !58
  store i32 %1, ptr %4, align 4, !tbaa !27
  %5 = load ptr, ptr %3, align 8, !tbaa !58
  %6 = getelementptr inbounds nuw %struct.Vec_Ptr_t_, ptr %5, i32 0, i32 2
  %7 = load ptr, ptr %6, align 8, !tbaa !71
  %8 = load i32, ptr %4, align 4, !tbaa !27
  %9 = sext i32 %8 to i64
  %10 = getelementptr inbounds ptr, ptr %7, i64 %9
  %11 = load ptr, ptr %10, align 8, !tbaa !72
  ret ptr %11
}

; Function Attrs: inlinehint nounwind uwtable
define internal i32 @Vec_PtrSize(ptr noundef %0) #3 {
  %2 = alloca ptr, align 8
  store ptr %0, ptr %2, align 8, !tbaa !58
  %3 = load ptr, ptr %2, align 8, !tbaa !58
  %4 = getelementptr inbounds nuw %struct.Vec_Ptr_t_, ptr %3, i32 0, i32 1
  %5 = load i32, ptr %4, align 4, !tbaa !59
  ret i32 %5
}

; Function Attrs: inlinehint nounwind uwtable
define internal ptr @Abc_NtkPo(ptr noundef %0, i32 noundef %1) #3 {
  %3 = alloca ptr, align 8
  %4 = alloca i32, align 4
  store ptr %0, ptr %3, align 8, !tbaa !3
  store i32 %1, ptr %4, align 4, !tbaa !27
  %5 = load ptr, ptr %3, align 8, !tbaa !3
  %6 = getelementptr inbounds nuw %struct.Abc_Ntk_t_, ptr %5, i32 0, i32 7
  %7 = load ptr, ptr %6, align 8, !tbaa !42
  %8 = load i32, ptr %4, align 4, !tbaa !27
  %9 = call ptr @Vec_PtrEntry(ptr noundef %7, i32 noundef %8)
  ret ptr %9
}

; Function Attrs: inlinehint nounwind uwtable
define internal i32 @Abc_NtkPoNum(ptr noundef %0) #3 {
  %2 = alloca ptr, align 8
  store ptr %0, ptr %2, align 8, !tbaa !3
  %3 = load ptr, ptr %2, align 8, !tbaa !3
  %4 = getelementptr inbounds nuw %struct.Abc_Ntk_t_, ptr %3, i32 0, i32 7
  %5 = load ptr, ptr %4, align 8, !tbaa !42
  %6 = call i32 @Vec_PtrSize(ptr noundef %5)
  ret i32 %6
}

; Function Attrs: inlinehint nounwind uwtable
define internal ptr @Abc_NtkPi(ptr noundef %0, i32 noundef %1) #3 {
  %3 = alloca ptr, align 8
  %4 = alloca i32, align 4
  store ptr %0, ptr %3, align 8, !tbaa !3
  store i32 %1, ptr %4, align 4, !tbaa !27
  %5 = load ptr, ptr %3, align 8, !tbaa !3
  %6 = getelementptr inbounds nuw %struct.Abc_Ntk_t_, ptr %5, i32 0, i32 6
  %7 = load ptr, ptr %6, align 8, !tbaa !40
  %8 = load i32, ptr %4, align 4, !tbaa !27
  %9 = call ptr @Vec_PtrEntry(ptr noundef %7, i32 noundef %8)
  ret ptr %9
}

; Function Attrs: inlinehint nounwind uwtable
define internal i32 @Abc_NtkPiNum(ptr noundef %0) #3 {
  %2 = alloca ptr, align 8
  store ptr %0, ptr %2, align 8, !tbaa !3
  %3 = load ptr, ptr %2, align 8, !tbaa !3
  %4 = getelementptr inbounds nuw %struct.Abc_Ntk_t_, ptr %3, i32 0, i32 6
  %5 = load ptr, ptr %4, align 8, !tbaa !40
  %6 = call i32 @Vec_PtrSize(ptr noundef %5)
  ret i32 %6
}

; Function Attrs: nounwind uwtable
define internal i32 @Abc_NtkComparePos(ptr noundef %0, ptr noundef %1, i32 noundef %2) #0 {
  %4 = alloca i32, align 4
  %5 = alloca ptr, align 8
  %6 = alloca ptr, align 8
  %7 = alloca i32, align 4
  %8 = alloca ptr, align 8
  %9 = alloca i32, align 4
  %10 = alloca i32, align 4
  store ptr %0, ptr %5, align 8, !tbaa !3
  store ptr %1, ptr %6, align 8, !tbaa !3
  store i32 %2, ptr %7, align 4, !tbaa !27
  call void @llvm.lifetime.start.p0(i64 8, ptr %8) #8
  call void @llvm.lifetime.start.p0(i64 4, ptr %9) #8
  %11 = load ptr, ptr %5, align 8, !tbaa !3
  %12 = call i32 @Abc_NtkPoNum(ptr noundef %11)
  %13 = load ptr, ptr %6, align 8, !tbaa !3
  %14 = call i32 @Abc_NtkPoNum(ptr noundef %13)
  %15 = icmp ne i32 %12, %14
  br i1 %15, label %16, label %18

16:                                               ; preds = %3
  %17 = call i32 (ptr, ...) @printf(ptr noundef @.str.54)
  store i32 0, ptr %4, align 4
  store i32 1, ptr %10, align 4
  br label %53

18:                                               ; preds = %3
  store i32 0, ptr %9, align 4, !tbaa !27
  br label %19

19:                                               ; preds = %49, %18
  %20 = load i32, ptr %9, align 4, !tbaa !27
  %21 = load ptr, ptr %5, align 8, !tbaa !3
  %22 = call i32 @Abc_NtkPoNum(ptr noundef %21)
  %23 = icmp slt i32 %20, %22
  br i1 %23, label %24, label %28

24:                                               ; preds = %19
  %25 = load ptr, ptr %5, align 8, !tbaa !3
  %26 = load i32, ptr %9, align 4, !tbaa !27
  %27 = call ptr @Abc_NtkPo(ptr noundef %25, i32 noundef %26)
  store ptr %27, ptr %8, align 8, !tbaa !29
  br label %28

28:                                               ; preds = %24, %19
  %29 = phi i1 [ false, %19 ], [ true, %24 ]
  br i1 %29, label %30, label %52

30:                                               ; preds = %28
  %31 = load ptr, ptr %8, align 8, !tbaa !29
  %32 = call ptr @Abc_ObjName(ptr noundef %31)
  %33 = load ptr, ptr %6, align 8, !tbaa !3
  %34 = load i32, ptr %9, align 4, !tbaa !27
  %35 = call ptr @Abc_NtkPo(ptr noundef %33, i32 noundef %34)
  %36 = call ptr @Abc_ObjName(ptr noundef %35)
  %37 = call i32 @strcmp(ptr noundef %32, ptr noundef %36) #9
  %38 = icmp ne i32 %37, 0
  br i1 %38, label %39, label %48

39:                                               ; preds = %30
  %40 = load i32, ptr %9, align 4, !tbaa !27
  %41 = load ptr, ptr %8, align 8, !tbaa !29
  %42 = call ptr @Abc_ObjName(ptr noundef %41)
  %43 = load ptr, ptr %6, align 8, !tbaa !3
  %44 = load i32, ptr %9, align 4, !tbaa !27
  %45 = call ptr @Abc_NtkPo(ptr noundef %43, i32 noundef %44)
  %46 = call ptr @Abc_ObjName(ptr noundef %45)
  %47 = call i32 (ptr, ...) @printf(ptr noundef @.str.55, i32 noundef %40, ptr noundef %42, ptr noundef %46)
  store i32 0, ptr %4, align 4
  store i32 1, ptr %10, align 4
  br label %53

48:                                               ; preds = %30
  br label %49

49:                                               ; preds = %48
  %50 = load i32, ptr %9, align 4, !tbaa !27
  %51 = add nsw i32 %50, 1
  store i32 %51, ptr %9, align 4, !tbaa !27
  br label %19, !llvm.loop !78

52:                                               ; preds = %28
  store i32 1, ptr %4, align 4
  store i32 1, ptr %10, align 4
  br label %53

53:                                               ; preds = %52, %39, %16
  call void @llvm.lifetime.end.p0(i64 4, ptr %9) #8
  call void @llvm.lifetime.end.p0(i64 8, ptr %8) #8
  %54 = load i32, ptr %4, align 4
  ret i32 %54
}

; Function Attrs: nounwind uwtable
define internal i32 @Abc_NtkComparePis(ptr noundef %0, ptr noundef %1, i32 noundef %2) #0 {
  %4 = alloca i32, align 4
  %5 = alloca ptr, align 8
  %6 = alloca ptr, align 8
  %7 = alloca i32, align 4
  %8 = alloca ptr, align 8
  %9 = alloca i32, align 4
  %10 = alloca i32, align 4
  store ptr %0, ptr %5, align 8, !tbaa !3
  store ptr %1, ptr %6, align 8, !tbaa !3
  store i32 %2, ptr %7, align 4, !tbaa !27
  call void @llvm.lifetime.start.p0(i64 8, ptr %8) #8
  call void @llvm.lifetime.start.p0(i64 4, ptr %9) #8
  %11 = load ptr, ptr %5, align 8, !tbaa !3
  %12 = call i32 @Abc_NtkPiNum(ptr noundef %11)
  %13 = load ptr, ptr %6, align 8, !tbaa !3
  %14 = call i32 @Abc_NtkPiNum(ptr noundef %13)
  %15 = icmp ne i32 %12, %14
  br i1 %15, label %16, label %18

16:                                               ; preds = %3
  %17 = call i32 (ptr, ...) @printf(ptr noundef @.str.52)
  store i32 0, ptr %4, align 4
  store i32 1, ptr %10, align 4
  br label %53

18:                                               ; preds = %3
  store i32 0, ptr %9, align 4, !tbaa !27
  br label %19

19:                                               ; preds = %49, %18
  %20 = load i32, ptr %9, align 4, !tbaa !27
  %21 = load ptr, ptr %5, align 8, !tbaa !3
  %22 = call i32 @Abc_NtkPiNum(ptr noundef %21)
  %23 = icmp slt i32 %20, %22
  br i1 %23, label %24, label %28

24:                                               ; preds = %19
  %25 = load ptr, ptr %5, align 8, !tbaa !3
  %26 = load i32, ptr %9, align 4, !tbaa !27
  %27 = call ptr @Abc_NtkPi(ptr noundef %25, i32 noundef %26)
  store ptr %27, ptr %8, align 8, !tbaa !29
  br label %28

28:                                               ; preds = %24, %19
  %29 = phi i1 [ false, %19 ], [ true, %24 ]
  br i1 %29, label %30, label %52

30:                                               ; preds = %28
  %31 = load ptr, ptr %8, align 8, !tbaa !29
  %32 = call ptr @Abc_ObjName(ptr noundef %31)
  %33 = load ptr, ptr %6, align 8, !tbaa !3
  %34 = load i32, ptr %9, align 4, !tbaa !27
  %35 = call ptr @Abc_NtkPi(ptr noundef %33, i32 noundef %34)
  %36 = call ptr @Abc_ObjName(ptr noundef %35)
  %37 = call i32 @strcmp(ptr noundef %32, ptr noundef %36) #9
  %38 = icmp ne i32 %37, 0
  br i1 %38, label %39, label %48

39:                                               ; preds = %30
  %40 = load i32, ptr %9, align 4, !tbaa !27
  %41 = load ptr, ptr %8, align 8, !tbaa !29
  %42 = call ptr @Abc_ObjName(ptr noundef %41)
  %43 = load ptr, ptr %6, align 8, !tbaa !3
  %44 = load i32, ptr %9, align 4, !tbaa !27
  %45 = call ptr @Abc_NtkPi(ptr noundef %43, i32 noundef %44)
  %46 = call ptr @Abc_ObjName(ptr noundef %45)
  %47 = call i32 (ptr, ...) @printf(ptr noundef @.str.53, i32 noundef %40, ptr noundef %42, ptr noundef %46)
  store i32 0, ptr %4, align 4
  store i32 1, ptr %10, align 4
  br label %53

48:                                               ; preds = %30
  br label %49

49:                                               ; preds = %48
  %50 = load i32, ptr %9, align 4, !tbaa !27
  %51 = add nsw i32 %50, 1
  store i32 %51, ptr %9, align 4, !tbaa !27
  br label %19, !llvm.loop !77

52:                                               ; preds = %28
  store i32 1, ptr %4, align 4
  store i32 1, ptr %10, align 4
  br label %53

53:                                               ; preds = %52, %39, %16
  call void @llvm.lifetime.end.p0(i64 4, ptr %9) #8
  call void @llvm.lifetime.end.p0(i64 8, ptr %8) #8
  %54 = load i32, ptr %4, align 4
  ret i32 %54
}

; Function Attrs: nounwind uwtable
define i32 @Abc_NtkCompareSignals(ptr noundef %0, ptr noundef %1, i32 noundef %2, i32 noundef %3) #0 {
  %5 = alloca i32, align 4
  %6 = alloca ptr, align 8
  %7 = alloca ptr, align 8
  %8 = alloca i32, align 4
  %9 = alloca i32, align 4
  store ptr %0, ptr %6, align 8, !tbaa !3
  store ptr %1, ptr %7, align 8, !tbaa !3
  store i32 %2, ptr %8, align 4, !tbaa !27
  store i32 %3, ptr %9, align 4, !tbaa !27
  %10 = load ptr, ptr %6, align 8, !tbaa !3
  %11 = load i32, ptr %9, align 4, !tbaa !27
  call void @Abc_NtkOrderObjsByName(ptr noundef %10, i32 noundef %11)
  %12 = load ptr, ptr %7, align 8, !tbaa !3
  %13 = load i32, ptr %9, align 4, !tbaa !27
  call void @Abc_NtkOrderObjsByName(ptr noundef %12, i32 noundef %13)
  %14 = load ptr, ptr %6, align 8, !tbaa !3
  %15 = load ptr, ptr %7, align 8, !tbaa !3
  %16 = load i32, ptr %9, align 4, !tbaa !27
  %17 = call i32 @Abc_NtkComparePis(ptr noundef %14, ptr noundef %15, i32 noundef %16)
  %18 = icmp ne i32 %17, 0
  br i1 %18, label %20, label %19

19:                                               ; preds = %4
  store i32 0, ptr %5, align 4
  br label %39

20:                                               ; preds = %4
  %21 = load i32, ptr %8, align 4, !tbaa !27
  %22 = icmp ne i32 %21, 0
  br i1 %22, label %38, label %23

23:                                               ; preds = %20
  %24 = load ptr, ptr %6, align 8, !tbaa !3
  %25 = load ptr, ptr %7, align 8, !tbaa !3
  %26 = load i32, ptr %9, align 4, !tbaa !27
  %27 = call i32 @Abc_NtkCompareBoxes(ptr noundef %24, ptr noundef %25, i32 noundef %26)
  %28 = icmp ne i32 %27, 0
  br i1 %28, label %30, label %29

29:                                               ; preds = %23
  store i32 0, ptr %5, align 4
  br label %39

30:                                               ; preds = %23
  %31 = load ptr, ptr %6, align 8, !tbaa !3
  %32 = load ptr, ptr %7, align 8, !tbaa !3
  %33 = load i32, ptr %9, align 4, !tbaa !27
  %34 = call i32 @Abc_NtkComparePos(ptr noundef %31, ptr noundef %32, i32 noundef %33)
  %35 = icmp ne i32 %34, 0
  br i1 %35, label %37, label %36

36:                                               ; preds = %30
  store i32 0, ptr %5, align 4
  br label %39

37:                                               ; preds = %30
  br label %38

38:                                               ; preds = %37, %20
  store i32 1, ptr %5, align 4
  br label %39

39:                                               ; preds = %38, %36, %29, %19
  %40 = load i32, ptr %5, align 4
  ret i32 %40
}