; Function Attrs: nounwind uwtable
define range(i32 0, 2) i32 @Abc_NtkCompareSignals(ptr noundef %0, ptr noundef %1, i32 noundef %2, i32 noundef %3) local_unnamed_addr #0 {
  tail call void @Abc_NtkOrderObjsByName(ptr noundef %0, i32 noundef %3) #11
  tail call void @Abc_NtkOrderObjsByName(ptr noundef %1, i32 noundef %3) #11
  %5 = getelementptr i8, ptr %0, i64 40
  %.val17.i = load ptr, ptr %5, align 8, !tbaa !32
  %6 = getelementptr i8, ptr %.val17.i, i64 4
  %.val17.val.i = load i32, ptr %6, align 4, !tbaa !30
  %7 = getelementptr i8, ptr %1, i64 40
  %.val16.i = load ptr, ptr %7, align 8, !tbaa !32
  %8 = getelementptr i8, ptr %.val16.i, i64 4
  %.val16.val.i = load i32, ptr %8, align 4, !tbaa !30
  %.not.i = icmp eq i32 %.val17.val.i, %.val16.val.i
  br i1 %.not.i, label %.preheader.i, label %10

.preheader.i:                                     ; preds = %4
  %9 = icmp sgt i32 %.val17.val.i, 0
  br i1 %9, label %.lr.ph.i, label %Abc_NtkComparePis.exit

10:                                               ; preds = %4
  %puts.i = tail call i32 @puts(ptr nonnull dereferenceable(1) @str.1)
  br label %Abc_NtkComparePos.exit

.lr.ph.i:                                         ; preds = %.preheader.i, %28
  %indvars.iv.i = phi i64 [ %indvars.iv.next.i, %28 ], [ 0, %.preheader.i ]
  %.val26.i = phi ptr [ %.val.i, %28 ], [ %.val17.i, %.preheader.i ]
  %11 = getelementptr i8, ptr %.val26.i, i64 8
  %.val18.val.i = load ptr, ptr %11, align 8, !tbaa !38
  %12 = getelementptr inbounds nuw ptr, ptr %.val18.val.i, i64 %indvars.iv.i
  %13 = load ptr, ptr %12, align 8, !tbaa !39
  %14 = tail call ptr @Abc_ObjName(ptr noundef %13) #11
  %.val19.i = load ptr, ptr %7, align 8, !tbaa !32
  %15 = getelementptr i8, ptr %.val19.i, i64 8
  %.val19.val.i = load ptr, ptr %15, align 8, !tbaa !38
  %16 = getelementptr inbounds nuw ptr, ptr %.val19.val.i, i64 %indvars.iv.i
  %17 = load ptr, ptr %16, align 8, !tbaa !39
  %18 = tail call ptr @Abc_ObjName(ptr noundef %17) #11
  %19 = tail call i32 @strcmp(ptr noundef nonnull dereferenceable(1) %14, ptr noundef nonnull dereferenceable(1) %18) #12
  %.not15.i = icmp eq i32 %19, 0
  br i1 %.not15.i, label %28, label %20

20:                                               ; preds = %.lr.ph.i
  %21 = trunc nuw nsw i64 %indvars.iv.i to i32
  %22 = tail call ptr @Abc_ObjName(ptr noundef %13) #11
  %.val20.i = load ptr, ptr %7, align 8, !tbaa !32
  %23 = getelementptr i8, ptr %.val20.i, i64 8
  %.val20.val.i = load ptr, ptr %23, align 8, !tbaa !38
  %24 = getelementptr inbounds nuw ptr, ptr %.val20.val.i, i64 %indvars.iv.i
  %25 = load ptr, ptr %24, align 8, !tbaa !39
  %26 = tail call ptr @Abc_ObjName(ptr noundef %25) #11
  %27 = tail call i32 (ptr, ...) @printf(ptr noundef nonnull dereferenceable(1) @.str.53, i32 noundef %21, ptr noundef %22, ptr noundef %26)
  br label %Abc_NtkComparePos.exit

28:                                               ; preds = %.lr.ph.i
  %indvars.iv.next.i = add nuw nsw i64 %indvars.iv.i, 1
  %.val.i = load ptr, ptr %5, align 8, !tbaa !32
  %29 = getelementptr i8, ptr %.val.i, i64 4
  %.val.val.i = load i32, ptr %29, align 4, !tbaa !30
  %30 = sext i32 %.val.val.i to i64
  %31 = icmp slt i64 %indvars.iv.next.i, %30
  br i1 %31, label %.lr.ph.i, label %Abc_NtkComparePis.exit, !llvm.loop !72

Abc_NtkComparePis.exit:                           ; preds = %28, %.preheader.i
  %.not14 = icmp eq i32 %2, 0
  br i1 %.not14, label %32, label %Abc_NtkComparePos.exit

32:                                               ; preds = %Abc_NtkComparePis.exit
  %33 = tail call i32 @Abc_NtkCompareBoxes(ptr noundef nonnull %0, ptr noundef nonnull %1, i32 noundef %3)
  %.not15 = icmp eq i32 %33, 0
  br i1 %.not15, label %Abc_NtkComparePos.exit, label %34

34:                                               ; preds = %32
  %35 = getelementptr i8, ptr %0, i64 48
  %.val17.i17 = load ptr, ptr %35, align 8, !tbaa !34
  %36 = getelementptr i8, ptr %.val17.i17, i64 4
  %.val17.val.i18 = load i32, ptr %36, align 4, !tbaa !30
  %37 = getelementptr i8, ptr %1, i64 48
  %.val16.i19 = load ptr, ptr %37, align 8, !tbaa !34
  %38 = getelementptr i8, ptr %.val16.i19, i64 4
  %.val16.val.i20 = load i32, ptr %38, align 4, !tbaa !30
  %.not.i21 = icmp eq i32 %.val17.val.i18, %.val16.val.i20
  br i1 %.not.i21, label %.preheader.i24, label %40

.preheader.i24:                                   ; preds = %34
  %39 = icmp sgt i32 %.val17.val.i18, 0
  br i1 %39, label %.lr.ph.i25, label %Abc_NtkComparePos.exit

40:                                               ; preds = %34
  %puts.i22 = tail call i32 @puts(ptr nonnull dereferenceable(1) @str.2)
  br label %Abc_NtkComparePos.exit

.lr.ph.i25:                                       ; preds = %.preheader.i24, %58
  %indvars.iv.i26 = phi i64 [ %indvars.iv.next.i34, %58 ], [ 0, %.preheader.i24 ]
  %.val26.i27 = phi ptr [ %.val.i35, %58 ], [ %.val17.i17, %.preheader.i24 ]
  %41 = getelementptr i8, ptr %.val26.i27, i64 8
  %.val18.val.i28 = load ptr, ptr %41, align 8, !tbaa !38
  %42 = getelementptr inbounds nuw ptr, ptr %.val18.val.i28, i64 %indvars.iv.i26
  %43 = load ptr, ptr %42, align 8, !tbaa !39
  %44 = tail call ptr @Abc_ObjName(ptr noundef %43) #11
  %.val19.i29 = load ptr, ptr %37, align 8, !tbaa !34
  %45 = getelementptr i8, ptr %.val19.i29, i64 8
  %.val19.val.i30 = load ptr, ptr %45, align 8, !tbaa !38
  %46 = getelementptr inbounds nuw ptr, ptr %.val19.val.i30, i64 %indvars.iv.i26
  %47 = load ptr, ptr %46, align 8, !tbaa !39
  %48 = tail call ptr @Abc_ObjName(ptr noundef %47) #11
  %49 = tail call i32 @strcmp(ptr noundef nonnull dereferenceable(1) %44, ptr noundef nonnull dereferenceable(1) %48) #12
  %.not15.i31 = icmp eq i32 %49, 0
  br i1 %.not15.i31, label %58, label %50

50:                                               ; preds = %.lr.ph.i25
  %51 = trunc nuw nsw i64 %indvars.iv.i26 to i32
  %52 = tail call ptr @Abc_ObjName(ptr noundef %43) #11
  %.val20.i32 = load ptr, ptr %37, align 8, !tbaa !34
  %53 = getelementptr i8, ptr %.val20.i32, i64 8
  %.val20.val.i33 = load ptr, ptr %53, align 8, !tbaa !38
  %54 = getelementptr inbounds nuw ptr, ptr %.val20.val.i33, i64 %indvars.iv.i26
  %55 = load ptr, ptr %54, align 8, !tbaa !39
  %56 = tail call ptr @Abc_ObjName(ptr noundef %55) #11
  %57 = tail call i32 (ptr, ...) @printf(ptr noundef nonnull dereferenceable(1) @.str.55, i32 noundef %51, ptr noundef %52, ptr noundef %56)
  br label %Abc_NtkComparePos.exit

58:                                               ; preds = %.lr.ph.i25
  %indvars.iv.next.i34 = add nuw nsw i64 %indvars.iv.i26, 1
  %.val.i35 = load ptr, ptr %35, align 8, !tbaa !34
  %59 = getelementptr i8, ptr %.val.i35, i64 4
  %.val.val.i36 = load i32, ptr %59, align 4, !tbaa !30
  %60 = sext i32 %.val.val.i36 to i64
  %61 = icmp slt i64 %indvars.iv.next.i34, %60
  br i1 %61, label %.lr.ph.i25, label %Abc_NtkComparePos.exit, !llvm.loop !73

Abc_NtkComparePos.exit:                           ; preds = %58, %50, %40, %20, %10, %Abc_NtkComparePis.exit, %.preheader.i24, %32
  %.0 = phi i32 [ 0, %32 ], [ 1, %.preheader.i24 ], [ 1, %Abc_NtkComparePis.exit ], [ 0, %10 ], [ 0, %20 ], [ 0, %40 ], [ 0, %50 ], [ 1, %58 ]
  ret i32 %.0
}